; Function Attrs: mustprogress nounwind uwtable
define dso_local noundef range(i32 0, 7) i32 @_ZN4llvm29hasUnrollAndJamTransformationEPKNS_4LoopE(ptr noundef %0) local_unnamed_addr #0 {
  %2 = tail call noundef zeroext i1 @_ZN4llvm23getBooleanLoopAttributeEPKNS_4LoopENS_9StringRefE(ptr noundef %0, ptr nonnull @.str.6, i64 32) #17
  br i1 %2, label %14, label %3

3:                                                ; preds = %1
  %4 = tail call i64 @_ZN4llvm27getOptionalIntLoopAttributeEPKNS_4LoopENS_9StringRefE(ptr noundef %0, ptr nonnull @.str.7, i64 30) #17
  %5 = and i64 %4, 4294967296
  %.not = icmp eq i64 %5, 0
  br i1 %.not, label %10, label %6

6:                                                ; preds = %3
  %7 = and i64 %4, 4294967295
  %8 = icmp eq i64 %7, 1
  %9 = select i1 %8, i32 6, i32 5
  br label %14

10:                                               ; preds = %3
  %11 = tail call noundef zeroext i1 @_ZN4llvm23getBooleanLoopAttributeEPKNS_4LoopENS_9StringRefE(ptr noundef %0, ptr nonnull @.str.8, i64 31) #17
  br i1 %11, label %14, label %12

12:                                               ; preds = %10
  %13 = tail call noundef zeroext i1 @_ZN4llvm23getBooleanLoopAttributeEPKNS_4LoopENS_9StringRefE(ptr noundef %0, ptr nonnull @.str.28, i64 27) #17
  %. = select i1 %13, i32 2, i32 0
  br label %14

14:                                               ; preds = %12, %10, %1, %6
  %.0 = phi i32 [ %9, %6 ], [ 6, %1 ], [ 5, %10 ], [ %., %12 ]
  ret i32 %.0
}